target datalayout = "e-m:e-p270:32:32-p271:32:32-p272:64:64-i64:64-i128:128-f80:128-n8:16:32:64-S128"
target triple = "x86_64-pc-linux-gnu"

%struct.file = type { %struct.archive_rb_node, ptr, i32, ptr, i64, i32, [3 x %struct.anon.0], i32, i32, i8 }
%struct.archive_rb_node = type { [2 x ptr], i64 }
%struct.anon.0 = type { i64, i64 }

; Function Attrs: nounwind uwtable
define internal i32 @file_cmp_node(ptr noundef %0, ptr noundef %1) #0 {
  %3 = alloca i32, align 4
  %4 = alloca ptr, align 8
  %5 = alloca ptr, align 8
  %6 = alloca ptr, align 8
  %7 = alloca ptr, align 8
  store ptr %0, ptr %4, align 8
  store ptr %1, ptr %5, align 8
  %8 = load ptr, ptr %4, align 8
  store ptr %8, ptr %6, align 8
  %9 = load ptr, ptr %5, align 8
  store ptr %9, ptr %7, align 8
  %10 = load ptr, ptr %6, align 8
  %11 = getelementptr inbounds %struct.file, ptr %10, i32 0, i32 2
  %12 = load i32, ptr %11, align 8
  %13 = load ptr, ptr %7, align 8
  %14 = getelementptr inbounds %struct.file, ptr %13, i32 0, i32 2
  %15 = load i32, ptr %14, align 8
  %16 = icmp eq i32 %12, %15
  br i1 %16, label %17, label %29

17:                                               ; preds = %2
  %18 = load ptr, ptr %6, align 8
  %19 = getelementptr inbounds %struct.file, ptr %18, i32 0, i32 3
  %20 = load ptr, ptr %19, align 8
  %21 = load ptr, ptr %7, align 8
  %22 = getelementptr inbounds %struct.file, ptr %21, i32 0, i32 3
  %23 = load ptr, ptr %22, align 8
  %24 = load ptr, ptr %6, align 8
  %25 = getelementptr inbounds %struct.file, ptr %24, i32 0, i32 2
  %26 = load i32, ptr %25, align 8
  %27 = zext i32 %26 to i64
  %28 = call i32 @memcmp(ptr noundef %20, ptr noundef %23, i64 noundef %27) #9
  store i32 %28, ptr %3, align 4
  br label %38

29:                                               ; preds = %2
  %30 = load ptr, ptr %6, align 8
  %31 = getelementptr inbounds %struct.file, ptr %30, i32 0, i32 2
  %32 = load i32, ptr %31, align 8
  %33 = load ptr, ptr %7, align 8
  %34 = getelementptr inbounds %struct.file, ptr %33, i32 0, i32 2
  %35 = load i32, ptr %34, align 8
  %36 = icmp ugt i32 %32, %35
  %37 = select i1 %36, i32 1, i32 -1
  store i32 %37, ptr %3, align 4
  br label %38

38:                                               ; preds = %29, %17
  %39 = load i32, ptr %3, align 4
  ret i32 %39
}