; Function Attrs: mustprogress nofree nounwind willreturn memory(read, inaccessiblemem: none) uwtable
define internal i32 @file_cmp_node(ptr noundef readonly captures(none) %0, ptr noundef readonly captures(none) %1) #1 {
  %3 = getelementptr inbounds nuw i8, ptr %0, i64 32
  %4 = load i32, ptr %3, align 8
  %5 = getelementptr inbounds nuw i8, ptr %1, i64 32
  %6 = load i32, ptr %5, align 8
  %7 = icmp eq i32 %4, %6
  br i1 %7, label %8, label %15

8:                                                ; preds = %2
  %9 = getelementptr inbounds nuw i8, ptr %0, i64 40
  %10 = load ptr, ptr %9, align 8
  %11 = getelementptr inbounds nuw i8, ptr %1, i64 40
  %12 = load ptr, ptr %11, align 8
  %13 = zext i32 %4 to i64
  %14 = tail call i32 @memcmp(ptr noundef %10, ptr noundef %12, i64 noundef %13) #20
  br label %18

15:                                               ; preds = %2
  %16 = icmp ugt i32 %4, %6
  %17 = select i1 %16, i32 1, i32 -1
  br label %18

18:                                               ; preds = %15, %8
  %.0 = phi i32 [ %14, %8 ], [ %17, %15 ]
  ret i32 %.0
}